target datalayout = "e-m:e-p270:32:32-p271:32:32-p272:64:64-i64:64-i128:128-f80:128-n8:16:32:64-S128"
target triple = "x86_64-pc-linux-gnu"

%struct.H5O_copy_dtype_merge_list_t = type { ptr, ptr }

@H5_libterm_g = external global i8, align 1
@H5P_init_g = external global i8, align 1

; Function Attrs: nounwind uwtable
define internal i32 @H5P__ocpy_merge_comm_dt_list_cmp(ptr noundef %0, ptr noundef %1, i64 noundef %2) #0 {
  %4 = alloca ptr, align 8
  %5 = alloca ptr, align 8
  %6 = alloca i64, align 8
  %7 = alloca ptr, align 8
  %8 = alloca ptr, align 8
  %9 = alloca i32, align 4
  store ptr %0, ptr %4, align 8, !tbaa !30
  store ptr %1, ptr %5, align 8, !tbaa !30
  store i64 %2, ptr %6, align 8, !tbaa !14
  call void @llvm.lifetime.start.p0(i64 8, ptr %7) #7
  %10 = load ptr, ptr %4, align 8, !tbaa !30
  %11 = load ptr, ptr %10, align 8, !tbaa !22
  store ptr %11, ptr %7, align 8, !tbaa !22
  call void @llvm.lifetime.start.p0(i64 8, ptr %8) #7
  %12 = load ptr, ptr %5, align 8, !tbaa !30
  %13 = load ptr, ptr %12, align 8, !tbaa !22
  store ptr %13, ptr %8, align 8, !tbaa !22
  call void @llvm.lifetime.start.p0(i64 4, ptr %9) #7
  store i32 0, ptr %9, align 4, !tbaa !8
  %14 = load i8, ptr @H5P_init_g, align 1, !tbaa !10, !range !12, !noundef !13
  %15 = trunc i8 %14 to i1
  br i1 %15, label %20, label %16

16:                                               ; preds = %3
  %17 = load i8, ptr @H5_libterm_g, align 1, !tbaa !10, !range !12, !noundef !13
  %18 = trunc i8 %17 to i1
  %19 = xor i1 %18, true
  br label %20

20:                                               ; preds = %16, %3
  %21 = phi i1 [ true, %3 ], [ %19, %16 ]
  %22 = xor i1 %21, true
  %23 = xor i1 %22, true
  %24 = zext i1 %23 to i32
  %25 = sext i32 %24 to i64
  %26 = call i64 @llvm.expect.i64(i64 %25, i64 1)
  %27 = icmp ne i64 %26, 0
  br i1 %27, label %28, label %75

28:                                               ; preds = %20
  br label %29

29:                                               ; preds = %52, %28
  %30 = load ptr, ptr %7, align 8, !tbaa !22
  %31 = icmp ne ptr %30, null
  br i1 %31, label %32, label %35

32:                                               ; preds = %29
  %33 = load ptr, ptr %8, align 8, !tbaa !22
  %34 = icmp ne ptr %33, null
  br label %35

35:                                               ; preds = %32, %29
  %36 = phi i1 [ false, %29 ], [ %34, %32 ]
  br i1 %36, label %37, label %59

37:                                               ; preds = %35
  %38 = load ptr, ptr %7, align 8, !tbaa !22
  %39 = getelementptr inbounds nuw %struct.H5O_copy_dtype_merge_list_t, ptr %38, i32 0, i32 0
  %40 = load ptr, ptr %39, align 8, !tbaa !25
  %41 = load ptr, ptr %8, align 8, !tbaa !22
  %42 = getelementptr inbounds nuw %struct.H5O_copy_dtype_merge_list_t, ptr %41, i32 0, i32 0
  %43 = load ptr, ptr %42, align 8, !tbaa !25
  %44 = call i32 @strcmp(ptr noundef %40, ptr noundef %43) #8
  store i32 %44, ptr %9, align 4, !tbaa !8
  %45 = load i32, ptr %9, align 4, !tbaa !8
  %46 = icmp ne i32 %45, 0
  br i1 %46, label %47, label %52

47:                                               ; preds = %37
  br label %48

48:                                               ; preds = %47
  %49 = load i32, ptr %9, align 4, !tbaa !8
  store i32 %49, ptr %9, align 4, !tbaa !8
  br label %74

50:                                               ; No predecessors!
  br label %51

51:                                               ; preds = %50
  br label %52

52:                                               ; preds = %51, %37
  %53 = load ptr, ptr %7, align 8, !tbaa !22
  %54 = getelementptr inbounds nuw %struct.H5O_copy_dtype_merge_list_t, ptr %53, i32 0, i32 1
  %55 = load ptr, ptr %54, align 8, !tbaa !27
  store ptr %55, ptr %7, align 8, !tbaa !22
  %56 = load ptr, ptr %8, align 8, !tbaa !22
  %57 = getelementptr inbounds nuw %struct.H5O_copy_dtype_merge_list_t, ptr %56, i32 0, i32 1
  %58 = load ptr, ptr %57, align 8, !tbaa !27
  store ptr %58, ptr %8, align 8, !tbaa !22
  br label %29, !llvm.loop !42

59:                                               ; preds = %35
  %60 = load ptr, ptr %7, align 8, !tbaa !22
  %61 = icmp ne ptr %60, null
  br i1 %61, label %62, label %66

62:                                               ; preds = %59
  br label %63

63:                                               ; preds = %62
  store i32 1, ptr %9, align 4, !tbaa !8
  br label %74

64:                                               ; No predecessors!
  br label %65

65:                                               ; preds = %64
  br label %66

66:                                               ; preds = %65, %59
  %67 = load ptr, ptr %8, align 8, !tbaa !22
  %68 = icmp ne ptr %67, null
  br i1 %68, label %69, label %73

69:                                               ; preds = %66
  br label %70

70:                                               ; preds = %69
  store i32 -1, ptr %9, align 4, !tbaa !8
  br label %74

71:                                               ; No predecessors!
  br label %72

72:                                               ; preds = %71
  br label %73

73:                                               ; preds = %72, %66
  br label %74

74:                                               ; preds = %73, %70, %63, %48
  br label %75

75:                                               ; preds = %74, %20
  %76 = load i32, ptr %9, align 4, !tbaa !8
  call void @llvm.lifetime.end.p0(i64 4, ptr %9) #7
  call void @llvm.lifetime.end.p0(i64 8, ptr %8) #7
  call void @llvm.lifetime.end.p0(i64 8, ptr %7) #7
  ret i32 %76
}