; Function Attrs: nofree nounwind memory(read, inaccessiblemem: none) uwtable
define internal i32 @H5P__ocpy_merge_comm_dt_list_cmp(ptr noundef readonly captures(none) %0, ptr noundef readonly captures(none) %1, i64 %2) #5 {
  %4 = load i8, ptr @H5P_init_g, align 1, !tbaa !3, !range !7, !noundef !8
  %5 = trunc nuw i8 %4 to i1
  %6 = load i8, ptr @H5_libterm_g, align 1, !range !7
  %7 = trunc nuw i8 %6 to i1
  %8 = xor i1 %7, true
  %9 = select i1 %5, i1 true, i1 %8
  br i1 %9, label %.preheader, label %.loopexit, !prof !9

.preheader:                                       ; preds = %3
  %.01221 = load ptr, ptr %1, align 8, !tbaa !18
  %.01322 = load ptr, ptr %0, align 8, !tbaa !18
  %10 = icmp ne ptr %.01322, null
  %11 = icmp ne ptr %.01221, null
  %12 = select i1 %10, i1 %11, i1 false
  br i1 %12, label %.lr.ph, label %._crit_edge

.lr.ph:                                           ; preds = %.preheader, %16
  %.01324 = phi ptr [ %.013, %16 ], [ %.01322, %.preheader ]
  %.01223 = phi ptr [ %.012, %16 ], [ %.01221, %.preheader ]
  %13 = load ptr, ptr %.01324, align 8, !tbaa !23
  %14 = load ptr, ptr %.01223, align 8, !tbaa !23
  %15 = tail call i32 @strcmp(ptr noundef nonnull dereferenceable(1) %13, ptr noundef nonnull dereferenceable(1) %14) #9
  %.not = icmp eq i32 %15, 0
  br i1 %.not, label %16, label %.loopexit

16:                                               ; preds = %.lr.ph
  %17 = getelementptr inbounds nuw i8, ptr %.01324, i64 8
  %18 = getelementptr inbounds nuw i8, ptr %.01223, i64 8
  %.012 = load ptr, ptr %18, align 8, !tbaa !18
  %.013 = load ptr, ptr %17, align 8, !tbaa !18
  %19 = icmp ne ptr %.013, null
  %20 = icmp ne ptr %.012, null
  %21 = select i1 %19, i1 %20, i1 false
  br i1 %21, label %.lr.ph, label %._crit_edge, !llvm.loop !39

._crit_edge:                                      ; preds = %16, %.preheader
  %.lcssa18 = phi i1 [ %10, %.preheader ], [ %19, %16 ]
  %.lcssa = phi i1 [ %11, %.preheader ], [ %20, %16 ]
  %spec.select = sext i1 %.lcssa to i32
  %spec.select16 = select i1 %.lcssa18, i32 1, i32 %spec.select
  br label %.loopexit

.loopexit:                                        ; preds = %.lr.ph, %._crit_edge, %3
  %.0 = phi i32 [ 0, %3 ], [ %spec.select16, %._crit_edge ], [ %15, %.lr.ph ]
  ret i32 %.0
}